; Function Attrs: nounwind uwtable
define internal range(i32 0, 2) i32 @test_bio_core() #0 {
  %1 = alloca %struct.ossl_core_bio_st, align 8
  %2 = alloca [80 x i8], align 16
  %3 = tail call ptr @OSSL_LIB_CTX_new_from_dispatch(ptr noundef null, ptr noundef nonnull @biocbs) #3
  call void @llvm.lifetime.start.p0(i64 16, ptr nonnull %1) #3
  call void @llvm.lifetime.start.p0(i64 80, ptr nonnull %2) #3
  %4 = tail call ptr @BIO_s_mem() #3
  %5 = tail call ptr @BIO_new(ptr noundef %4) #3
  %6 = getelementptr inbounds nuw i8, ptr %1, i64 8
  store ptr %5, ptr %6, align 8, !tbaa !4
  %7 = tail call i32 @test_ptr(ptr noundef nonnull @.str, i32 noundef 77, ptr noundef nonnull @.str.4, ptr noundef %5) #3
  %.not = icmp eq i32 %7, 0
  br i1 %.not, label %45, label %8

8:                                                ; preds = %0
  %9 = tail call i32 @test_ptr(ptr noundef nonnull @.str, i32 noundef 78, ptr noundef nonnull @.str.5, ptr noundef %3) #3
  %.not17 = icmp eq i32 %9, 0
  br i1 %.not17, label %45, label %10

10:                                               ; preds = %8
  %11 = call ptr @BIO_new_from_core_bio(ptr noundef null, ptr noundef nonnull %1) #3
  %12 = call i32 @test_ptr_null(ptr noundef nonnull @.str, i32 noundef 83, ptr noundef nonnull @.str.6, ptr noundef %11) #3
  %.not18 = icmp eq i32 %12, 0
  br i1 %.not18, label %45, label %13

13:                                               ; preds = %10
  %14 = call ptr @BIO_new_from_core_bio(ptr noundef %3, ptr noundef nonnull %1) #3
  %15 = call i32 @test_ptr(ptr noundef nonnull @.str, i32 noundef 84, ptr noundef nonnull @.str.7, ptr noundef %14) #3
  %.not19 = icmp eq i32 %15, 0
  br i1 %.not19, label %45, label %16

16:                                               ; preds = %13
  %17 = load ptr, ptr %6, align 8, !tbaa !4
  %18 = call i32 @BIO_puts(ptr noundef %17, ptr noundef nonnull @.str.3) #3
  %19 = call i32 @test_int_gt(ptr noundef nonnull @.str, i32 noundef 87, ptr noundef nonnull @.str.8, ptr noundef nonnull @.str.9, i32 noundef %18, i32 noundef 0) #3
  %.not20 = icmp eq i32 %19, 0
  br i1 %.not20, label %45, label %20

20:                                               ; preds = %16
  %21 = call i64 @BIO_ctrl(ptr noundef %14, i32 noundef 2, i64 noundef 0, ptr noundef null) #3
  %22 = and i64 %21, 4294967295
  %23 = icmp ne i64 %22, 0
  %24 = zext i1 %23 to i32
  %25 = call i32 @test_false(ptr noundef nonnull @.str, i32 noundef 89, ptr noundef nonnull @.str.10, i32 noundef %24) #3
  %.not21 = icmp eq i32 %25, 0
  br i1 %.not21, label %45, label %26

26:                                               ; preds = %20
  %27 = call i32 @BIO_gets(ptr noundef %14, ptr noundef nonnull %2, i32 noundef 80) #3
  %28 = call i32 @test_int_gt(ptr noundef nonnull @.str, i32 noundef 90, ptr noundef nonnull @.str.11, ptr noundef nonnull @.str.9, i32 noundef %27, i32 noundef 0) #3
  %.not22 = icmp eq i32 %28, 0
  br i1 %.not22, label %45, label %29

29:                                               ; preds = %26
  %30 = call i64 @BIO_ctrl(ptr noundef %14, i32 noundef 2, i64 noundef 0, ptr noundef null) #3
  %31 = and i64 %30, 4294967295
  %32 = icmp ne i64 %31, 0
  %33 = zext i1 %32 to i32
  %34 = call i32 @test_true(ptr noundef nonnull @.str, i32 noundef 91, ptr noundef nonnull @.str.10, i32 noundef %33) #3
  %.not23 = icmp eq i32 %34, 0
  br i1 %.not23, label %45, label %35

35:                                               ; preds = %29
  %36 = call i32 @test_str_eq(ptr noundef nonnull @.str, i32 noundef 92, ptr noundef nonnull @.str.12, ptr noundef nonnull @.str.13, ptr noundef nonnull %2, ptr noundef nonnull @.str.3) #3
  %.not24 = icmp eq i32 %36, 0
  br i1 %.not24, label %45, label %37

37:                                               ; preds = %35
  store i8 0, ptr %2, align 16, !tbaa !11
  %38 = call i32 @BIO_write(ptr noundef %14, ptr noundef nonnull @.str.3, i32 noundef 12) #3
  %39 = call i32 @test_int_gt(ptr noundef nonnull @.str, i32 noundef 96, ptr noundef nonnull @.str.14, ptr noundef nonnull @.str.9, i32 noundef %38, i32 noundef 0) #3
  %.not25 = icmp eq i32 %39, 0
  br i1 %.not25, label %45, label %40

40:                                               ; preds = %37
  %41 = call i32 @BIO_read(ptr noundef %14, ptr noundef nonnull %2, i32 noundef 80) #3
  %42 = call i32 @test_int_gt(ptr noundef nonnull @.str, i32 noundef 97, ptr noundef nonnull @.str.15, ptr noundef nonnull @.str.9, i32 noundef %41, i32 noundef 0) #3
  %.not26 = icmp eq i32 %42, 0
  br i1 %.not26, label %45, label %43

43:                                               ; preds = %40
  %44 = call i32 @test_str_eq(ptr noundef nonnull @.str, i32 noundef 98, ptr noundef nonnull @.str.12, ptr noundef nonnull @.str.13, ptr noundef nonnull %2, ptr noundef nonnull @.str.3) #3
  %.not27 = icmp ne i32 %44, 0
  %spec.select = zext i1 %.not27 to i32
  br label %45

45:                                               ; preds = %43, %37, %40, %16, %20, %26, %29, %35, %0, %8, %10, %13
  %.016 = phi ptr [ %11, %40 ], [ %11, %37 ], [ %11, %35 ], [ %11, %29 ], [ %11, %26 ], [ %11, %20 ], [ %11, %16 ], [ %11, %13 ], [ %11, %10 ], [ null, %8 ], [ null, %0 ], [ %11, %43 ]
  %.015 = phi i32 [ 0, %40 ], [ 0, %37 ], [ 0, %35 ], [ 0, %29 ], [ 0, %26 ], [ 0, %20 ], [ 0, %16 ], [ 0, %13 ], [ 0, %10 ], [ 0, %8 ], [ 0, %0 ], [ %spec.select, %43 ]
  %.0 = phi ptr [ %14, %40 ], [ %14, %37 ], [ %14, %35 ], [ %14, %29 ], [ %14, %26 ], [ %14, %20 ], [ %14, %16 ], [ %14, %13 ], [ null, %10 ], [ null, %8 ], [ null, %0 ], [ %14, %43 ]
  %46 = call i32 @BIO_free(ptr noundef %.016) #3
  %47 = call i32 @BIO_free(ptr noundef %.0) #3
  %48 = load ptr, ptr %6, align 8, !tbaa !4
  %49 = call i32 @BIO_free(ptr noundef %48) #3
  call void @OSSL_LIB_CTX_free(ptr noundef %3) #3
  call void @llvm.lifetime.end.p0(i64 80, ptr nonnull %2) #3
  call void @llvm.lifetime.end.p0(i64 16, ptr nonnull %1) #3
  ret i32 %.015
}